target datalayout = "e-m:e-p270:32:32-p271:32:32-p272:64:64-i64:64-i128:128-f80:128-n8:16:32:64-S128"
target triple = "x86_64-pc-linux-gnu"

%struct.insn_data_struct = type { i32, i32, ptr, ptr }

@encoded_insn_data = internal global ptr null, align 8
@.str.78 = private unnamed_addr constant [49 x i8] c"rb_vm_insn_addr2opcode: invalid insn address: %p\00", align 1

; Function Attrs: nounwind sspstrong uwtable
define hidden i32 @rb_vm_insn_addr2opcode(ptr noundef %0) #0 {
  %2 = alloca ptr, align 8
  %3 = alloca i64, align 8
  %4 = alloca i64, align 8
  %5 = alloca ptr, align 8
  %6 = alloca i32, align 4
  store ptr %0, ptr %2, align 8, !tbaa !104
  call void @llvm.lifetime.start.p0(i64 8, ptr %3) #24
  %7 = load ptr, ptr %2, align 8, !tbaa !104
  %8 = ptrtoint ptr %7 to i64
  store i64 %8, ptr %3, align 8, !tbaa !17
  call void @llvm.lifetime.start.p0(i64 8, ptr %4) #24
  %9 = load ptr, ptr @encoded_insn_data, align 8, !tbaa !294
  %10 = load i64, ptr %3, align 8, !tbaa !17
  %11 = call i32 @rb_st_lookup(ptr noundef %9, i64 noundef %10, ptr noundef %4)
  %12 = icmp ne i32 %11, 0
  br i1 %12, label %13, label %29

13:                                               ; preds = %1
  call void @llvm.lifetime.start.p0(i64 8, ptr %5) #24
  %14 = load i64, ptr %4, align 8, !tbaa !17
  %15 = inttoptr i64 %14 to ptr
  store ptr %15, ptr %5, align 8, !tbaa !337
  call void @llvm.lifetime.start.p0(i64 4, ptr %6) #24
  %16 = load ptr, ptr %5, align 8, !tbaa !337
  %17 = getelementptr inbounds nuw %struct.insn_data_struct, ptr %16, i32 0, i32 0
  %18 = load i32, ptr %17, align 8, !tbaa !331
  store i32 %18, ptr %6, align 4, !tbaa !56
  %19 = load ptr, ptr %2, align 8, !tbaa !104
  %20 = load ptr, ptr %5, align 8, !tbaa !337
  %21 = getelementptr inbounds nuw %struct.insn_data_struct, ptr %20, i32 0, i32 3
  %22 = load ptr, ptr %21, align 8, !tbaa !335
  %23 = icmp eq ptr %19, %22
  br i1 %23, label %24, label %27

24:                                               ; preds = %13
  %25 = load i32, ptr %6, align 4, !tbaa !56
  %26 = add i32 %25, 110
  store i32 %26, ptr %6, align 4, !tbaa !56
  br label %27

27:                                               ; preds = %24, %13
  %28 = load i32, ptr %6, align 4, !tbaa !56
  call void @llvm.lifetime.end.p0(i64 4, ptr %6) #24
  call void @llvm.lifetime.end.p0(i64 8, ptr %5) #24
  call void @llvm.lifetime.end.p0(i64 8, ptr %4) #24
  call void @llvm.lifetime.end.p0(i64 8, ptr %3) #24
  ret i32 %28

29:                                               ; preds = %1
  %30 = load ptr, ptr %2, align 8, !tbaa !104
  call void (ptr, ...) @rb_bug(ptr noundef @.str.78, ptr noundef %30) #30
  unreachable
}