; Function Attrs: nounwind sspstrong uwtable
define hidden i32 @rb_vm_insn_addr2opcode(ptr noundef %0) local_unnamed_addr #0 {
  %2 = alloca i64, align 8
  %3 = ptrtoint ptr %0 to i64
  call void @llvm.lifetime.start.p0(i64 8, ptr nonnull %2) #20
  %4 = load ptr, ptr @encoded_insn_data, align 8, !tbaa !165
  %5 = call i32 @rb_st_lookup(ptr noundef %4, i64 noundef %3, ptr noundef nonnull %2) #20
  %.not = icmp eq i32 %5, 0
  br i1 %.not, label %14, label %6

6:                                                ; preds = %1
  %7 = load i64, ptr %2, align 8, !tbaa !42
  %8 = inttoptr i64 %7 to ptr
  %9 = load i32, ptr %8, align 8, !tbaa !333
  %10 = getelementptr inbounds nuw i8, ptr %8, i64 16
  %11 = load ptr, ptr %10, align 8, !tbaa !166
  %12 = icmp eq ptr %0, %11
  %13 = add i32 %9, 110
  %spec.select = select i1 %12, i32 %13, i32 %9
  call void @llvm.lifetime.end.p0(i64 8, ptr nonnull %2) #20
  ret i32 %spec.select

14:                                               ; preds = %1
  call void (ptr, ...) @rb_bug(ptr noundef nonnull @.str.78, ptr noundef %0) #23
  unreachable
}